; Function Attrs: mustprogress uwtable
define noundef zeroext i1 @_ZNK10open_spiel7othello12OthelloState11ValidActionEii(ptr noundef nonnull readonly align 8 captures(none) dereferenceable(324) %0, i32 noundef %1, i32 noundef %2) local_unnamed_addr #3 align 2 {
  %4 = getelementptr inbounds nuw i8, ptr %0, i64 60
  %5 = sext i32 %2 to i64
  %6 = getelementptr inbounds [64 x i32], ptr %4, i64 0, i64 %5
  %7 = load i32, ptr %6, align 4
  %8 = icmp eq i32 %7, 0
  br i1 %8, label %.preheader.i, label %_ZNK10open_spiel7othello12OthelloState10CanCaptureEii.exit

.preheader.i:                                     ; preds = %3, %.preheader.i
  %.09.idx12.i = phi i64 [ %.09.add.i, %.preheader.i ], [ 0, %3 ]
  %.09.ptr.i = getelementptr inbounds nuw i8, ptr @_ZN10open_spiel7othello11kDirectionsE, i64 %.09.idx12.i
  %9 = load i32, ptr %.09.ptr.i, align 4
  %10 = tail call noundef i32 @_ZNK10open_spiel7othello12OthelloState10CountStepsEiiNS0_9DirectionE(ptr noundef nonnull readonly align 8 dereferenceable(324) %0, i32 noundef %1, i32 noundef %2, i32 noundef %9)
  %.not11.not.i.not = icmp ne i32 %10, 0
  %.09.add.i = add nuw nsw i64 %.09.idx12.i, 4
  %.not10.i = icmp eq i64 %.09.add.i, 32
  %or.cond = select i1 %.not11.not.i.not, i1 true, i1 %.not10.i
  br i1 %or.cond, label %_ZNK10open_spiel7othello12OthelloState10CanCaptureEii.exit, label %.preheader.i

_ZNK10open_spiel7othello12OthelloState10CanCaptureEii.exit: ; preds = %.preheader.i, %3
  %11 = phi i1 [ false, %3 ], [ %.not11.not.i.not, %.preheader.i ]
  ret i1 %11
}